target datalayout = "e-m:e-p270:32:32-p271:32:32-p272:64:64-i64:64-i128:128-f80:128-n8:16:32:64-S128"
target triple = "x86_64-pc-linux-gnu"

; Function Attrs: mustprogress uwtable
define void @_Z17duDebugDrawGridXZP11duDebugDrawfffiifjf(ptr noundef %0, float noundef %1, float noundef %2, float noundef %3, i32 noundef %4, i32 noundef %5, float noundef %6, i32 noundef %7, float noundef %8) #2 {
  %10 = alloca ptr, align 8
  %11 = alloca float, align 4
  %12 = alloca float, align 4
  %13 = alloca float, align 4
  %14 = alloca i32, align 4
  %15 = alloca i32, align 4
  %16 = alloca float, align 4
  %17 = alloca i32, align 4
  %18 = alloca float, align 4
  %19 = alloca i32, align 4
  %20 = alloca i32, align 4
  store ptr %0, ptr %10, align 8
  store float %1, ptr %11, align 4
  store float %2, ptr %12, align 4
  store float %3, ptr %13, align 4
  store i32 %4, ptr %14, align 4
  store i32 %5, ptr %15, align 4
  store float %6, ptr %16, align 4
  store i32 %7, ptr %17, align 4
  store float %8, ptr %18, align 4
  %21 = load ptr, ptr %10, align 8
  %22 = icmp ne ptr %21, null
  br i1 %22, label %24, label %23

23:                                               ; preds = %9
  br label %108

24:                                               ; preds = %9
  %25 = load ptr, ptr %10, align 8
  %26 = load float, ptr %18, align 4
  %27 = load ptr, ptr %25, align 8
  %28 = getelementptr inbounds ptr, ptr %27, i64 4
  %29 = load ptr, ptr %28, align 8
  call void %29(ptr noundef nonnull align 8 dereferenceable(8) %25, i32 noundef 1, float noundef %26)
  store i32 0, ptr %19, align 4
  br label %30

30:                                               ; preds = %63, %24
  %31 = load i32, ptr %19, align 4
  %32 = load i32, ptr %15, align 4
  %33 = icmp sle i32 %31, %32
  br i1 %33, label %34, label %66

34:                                               ; preds = %30
  %35 = load ptr, ptr %10, align 8
  %36 = load float, ptr %11, align 4
  %37 = load float, ptr %12, align 4
  %38 = load float, ptr %13, align 4
  %39 = load i32, ptr %19, align 4
  %40 = sitofp i32 %39 to float
  %41 = load float, ptr %16, align 4
  %42 = call float @llvm.fmuladd.f32(float %40, float %41, float %38)
  %43 = load i32, ptr %17, align 4
  %44 = load ptr, ptr %35, align 8
  %45 = getelementptr inbounds ptr, ptr %44, i64 6
  %46 = load ptr, ptr %45, align 8
  call void %46(ptr noundef nonnull align 8 dereferenceable(8) %35, float noundef %36, float noundef %37, float noundef %42, i32 noundef %43)
  %47 = load ptr, ptr %10, align 8
  %48 = load float, ptr %11, align 4
  %49 = load i32, ptr %14, align 4
  %50 = sitofp i32 %49 to float
  %51 = load float, ptr %16, align 4
  %52 = call float @llvm.fmuladd.f32(float %50, float %51, float %48)
  %53 = load float, ptr %12, align 4
  %54 = load float, ptr %13, align 4
  %55 = load i32, ptr %19, align 4
  %56 = sitofp i32 %55 to float
  %57 = load float, ptr %16, align 4
  %58 = call float @llvm.fmuladd.f32(float %56, float %57, float %54)
  %59 = load i32, ptr %17, align 4
  %60 = load ptr, ptr %47, align 8
  %61 = getelementptr inbounds ptr, ptr %60, i64 6
  %62 = load ptr, ptr %61, align 8
  call void %62(ptr noundef nonnull align 8 dereferenceable(8) %47, float noundef %52, float noundef %53, float noundef %58, i32 noundef %59)
  br label %63

63:                                               ; preds = %34
  %64 = load i32, ptr %19, align 4
  %65 = add nsw i32 %64, 1
  store i32 %65, ptr %19, align 4
  br label %30, !llvm.loop !16

66:                                               ; preds = %30
  store i32 0, ptr %20, align 4
  br label %67

67:                                               ; preds = %100, %66
  %68 = load i32, ptr %20, align 4
  %69 = load i32, ptr %14, align 4
  %70 = icmp sle i32 %68, %69
  br i1 %70, label %71, label %103

71:                                               ; preds = %67
  %72 = load ptr, ptr %10, align 8
  %73 = load float, ptr %11, align 4
  %74 = load i32, ptr %20, align 4
  %75 = sitofp i32 %74 to float
  %76 = load float, ptr %16, align 4
  %77 = call float @llvm.fmuladd.f32(float %75, float %76, float %73)
  %78 = load float, ptr %12, align 4
  %79 = load float, ptr %13, align 4
  %80 = load i32, ptr %17, align 4
  %81 = load ptr, ptr %72, align 8
  %82 = getelementptr inbounds ptr, ptr %81, i64 6
  %83 = load ptr, ptr %82, align 8
  call void %83(ptr noundef nonnull align 8 dereferenceable(8) %72, float noundef %77, float noundef %78, float noundef %79, i32 noundef %80)
  %84 = load ptr, ptr %10, align 8
  %85 = load float, ptr %11, align 4
  %86 = load i32, ptr %20, align 4
  %87 = sitofp i32 %86 to float
  %88 = load float, ptr %16, align 4
  %89 = call float @llvm.fmuladd.f32(float %87, float %88, float %85)
  %90 = load float, ptr %12, align 4
  %91 = load float, ptr %13, align 4
  %92 = load i32, ptr %15, align 4
  %93 = sitofp i32 %92 to float
  %94 = load float, ptr %16, align 4
  %95 = call float @llvm.fmuladd.f32(float %93, float %94, float %91)
  %96 = load i32, ptr %17, align 4
  %97 = load ptr, ptr %84, align 8
  %98 = getelementptr inbounds ptr, ptr %97, i64 6
  %99 = load ptr, ptr %98, align 8
  call void %99(ptr noundef nonnull align 8 dereferenceable(8) %84, float noundef %89, float noundef %90, float noundef %95, i32 noundef %96)
  br label %100

100:                                              ; preds = %71
  %101 = load i32, ptr %20, align 4
  %102 = add nsw i32 %101, 1
  store i32 %102, ptr %20, align 4
  br label %67, !llvm.loop !17

103:                                              ; preds = %67
  %104 = load ptr, ptr %10, align 8
  %105 = load ptr, ptr %104, align 8
  %106 = getelementptr inbounds ptr, ptr %105, i64 9
  %107 = load ptr, ptr %106, align 8
  call void %107(ptr noundef nonnull align 8 dereferenceable(8) %104)
  br label %108

108:                                              ; preds = %103, %23
  ret void
}