; Function Attrs: mustprogress uwtable
define void @_Z17duDebugDrawGridXZP11duDebugDrawfffiifjf(ptr noundef %0, float noundef %1, float noundef %2, float noundef %3, i32 noundef %4, i32 noundef %5, float noundef %6, i32 noundef %7, float noundef %8) local_unnamed_addr #4 {
  %.not = icmp eq ptr %0, null
  br i1 %.not, label %41, label %10

10:                                               ; preds = %9
  %11 = load ptr, ptr %0, align 8
  %12 = getelementptr inbounds i8, ptr %11, i64 32
  %13 = load ptr, ptr %12, align 8
  tail call void %13(ptr noundef nonnull align 8 dereferenceable(8) %0, i32 noundef 1, float noundef %8)
  %.not4446 = icmp slt i32 %5, 0
  br i1 %.not4446, label %.preheader, label %.lr.ph

.lr.ph:                                           ; preds = %10
  %14 = sitofp i32 %4 to float
  %15 = tail call float @llvm.fmuladd.f32(float %14, float %6, float %1)
  br label %18

.preheader:                                       ; preds = %18, %10
  %.not4548 = icmp slt i32 %4, 0
  br i1 %.not4548, label %._crit_edge, label %.lr.ph50

.lr.ph50:                                         ; preds = %.preheader
  %16 = sitofp i32 %5 to float
  %17 = tail call float @llvm.fmuladd.f32(float %16, float %6, float %3)
  br label %28

18:                                               ; preds = %.lr.ph, %18
  %.04147 = phi i32 [ 0, %.lr.ph ], [ %27, %18 ]
  %19 = sitofp i32 %.04147 to float
  %20 = tail call float @llvm.fmuladd.f32(float %19, float %6, float %3)
  %21 = load ptr, ptr %0, align 8
  %22 = getelementptr inbounds i8, ptr %21, i64 48
  %23 = load ptr, ptr %22, align 8
  tail call void %23(ptr noundef nonnull align 8 dereferenceable(8) %0, float noundef %1, float noundef %2, float noundef %20, i32 noundef %7)
  %24 = load ptr, ptr %0, align 8
  %25 = getelementptr inbounds i8, ptr %24, i64 48
  %26 = load ptr, ptr %25, align 8
  tail call void %26(ptr noundef nonnull align 8 dereferenceable(8) %0, float noundef %15, float noundef %2, float noundef %20, i32 noundef %7)
  %27 = add nuw i32 %.04147, 1
  %exitcond.not = icmp eq i32 %.04147, %5
  br i1 %exitcond.not, label %.preheader, label %18, !llvm.loop !16

28:                                               ; preds = %.lr.ph50, %28
  %.049 = phi i32 [ 0, %.lr.ph50 ], [ %37, %28 ]
  %29 = sitofp i32 %.049 to float
  %30 = tail call float @llvm.fmuladd.f32(float %29, float %6, float %1)
  %31 = load ptr, ptr %0, align 8
  %32 = getelementptr inbounds i8, ptr %31, i64 48
  %33 = load ptr, ptr %32, align 8
  tail call void %33(ptr noundef nonnull align 8 dereferenceable(8) %0, float noundef %30, float noundef %2, float noundef %3, i32 noundef %7)
  %34 = load ptr, ptr %0, align 8
  %35 = getelementptr inbounds i8, ptr %34, i64 48
  %36 = load ptr, ptr %35, align 8
  tail call void %36(ptr noundef nonnull align 8 dereferenceable(8) %0, float noundef %30, float noundef %2, float noundef %17, i32 noundef %7)
  %37 = add nuw i32 %.049, 1
  %exitcond51.not = icmp eq i32 %.049, %4
  br i1 %exitcond51.not, label %._crit_edge, label %28, !llvm.loop !17

._crit_edge:                                      ; preds = %28, %.preheader
  %38 = load ptr, ptr %0, align 8
  %39 = getelementptr inbounds i8, ptr %38, i64 72
  %40 = load ptr, ptr %39, align 8
  tail call void %40(ptr noundef nonnull align 8 dereferenceable(8) %0)
  br label %41

41:                                               ; preds = %9, %._crit_edge
  ret void
}